target datalayout = "e-m:e-p270:32:32-p271:32:32-p272:64:64-i64:64-i128:128-f80:128-n8:16:32:64-S128"
target triple = "x86_64-pc-linux-gnu"

%"class.std::__cxx11::basic_string" = type { %"struct.std::__cxx11::basic_string<char>::_Alloc_hider", i64, %union.anon }
%"struct.std::__cxx11::basic_string<char>::_Alloc_hider" = type { ptr }
%union.anon = type { i64, [8 x i8] }
%"class.grpc_core::Duration" = type { i64 }
%"struct.std::atomic.128" = type { %"struct.std::__atomic_base.129" }
%"struct.std::__atomic_base.129" = type { i64 }
%"class.absl::lts_20240722::Mutex" = type { %"struct.std::atomic.128" }
%struct.grpc_closure = type { %union.anon.178, ptr, ptr, %union.anon.179 }
%union.anon.178 = type { ptr }
%union.anon.179 = type { i64 }
%"class.std::unique_ptr.180" = type { %"struct.std::__uniq_ptr_data.181" }
%"struct.std::__uniq_ptr_data.181" = type { %"class.std::__uniq_ptr_impl.182" }
%"class.std::__uniq_ptr_impl.182" = type { %"class.std::tuple.183" }
%"class.std::tuple.183" = type { %"struct.std::_Tuple_impl.184" }
%"struct.std::_Tuple_impl.184" = type { %"struct.std::_Head_base.187" }
%"struct.std::_Head_base.187" = type { ptr }
%"class.std::_Function_base" = type { %"union.std::_Any_data", ptr }
%"union.std::_Any_data" = type { %"union.std::_Nocopy_types" }
%"union.std::_Nocopy_types" = type { { i64, i64 } }
%"class.std::function.282" = type { %"class.std::_Function_base", ptr }
%"class.grpc_core::(anonymous namespace)::AresDNSResolver::AresRequest" = type { ptr, %"class.std::__cxx11::basic_string", %"class.std::__cxx11::basic_string", %"class.grpc_core::Duration", %"class.absl::lts_20240722::Mutex", ptr, %"class.std::unique_ptr.180", i8, ptr, i64, %struct.grpc_closure, ptr }
%"class.grpc_core::(anonymous namespace)::AresDNSResolver::AresTXTRequest" = type { %"class.grpc_core::(anonymous namespace)::AresDNSResolver::AresRequest", ptr, %"class.std::function.282" }

; Function Attrs: mustprogress nounwind uwtable
define linkonce_odr void @_ZNSt14_Function_baseD2Ev(ptr noundef nonnull align 8 dereferenceable(24) %0) unnamed_addr #4 comdat align 2 personality ptr @__gxx_personality_v0 {
  %2 = alloca ptr, align 8
  store ptr %0, ptr %2, align 8, !tbaa !506
  %3 = load ptr, ptr %2, align 8
  %4 = getelementptr inbounds nuw %"class.std::_Function_base", ptr %3, i32 0, i32 1
  %5 = load ptr, ptr %4, align 8, !tbaa !508
  %6 = icmp ne ptr %5, null
  br i1 %6, label %7, label %14

7:                                                ; preds = %1
  %8 = getelementptr inbounds nuw %"class.std::_Function_base", ptr %3, i32 0, i32 1
  %9 = load ptr, ptr %8, align 8, !tbaa !508
  %10 = getelementptr inbounds nuw %"class.std::_Function_base", ptr %3, i32 0, i32 0
  %11 = getelementptr inbounds nuw %"class.std::_Function_base", ptr %3, i32 0, i32 0
  %12 = invoke noundef zeroext i1 %9(ptr noundef nonnull align 8 dereferenceable(16) %10, ptr noundef nonnull align 8 dereferenceable(16) %11, i32 noundef 3)
          to label %13 unwind label %15

13:                                               ; preds = %7
  br label %14

14:                                               ; preds = %13, %1
  ret void

15:                                               ; preds = %7
  %16 = landingpad { ptr, i32 }
          catch ptr null
  %17 = extractvalue { ptr, i32 } %16, 0
  call void @__clang_call_terminate(ptr %17) #32
  unreachable
}

; Function Attrs: mustprogress nounwind uwtable
define internal void @_ZN9grpc_core12_GLOBAL__N_115AresDNSResolver14AresTXTRequestD2Ev(ptr noundef nonnull align 8 dereferenceable(208) %0) unnamed_addr #4 align 2 personality ptr @__gxx_personality_v0 {
  %2 = alloca ptr, align 8
  store ptr %0, ptr %2, align 8, !tbaa !691
  %3 = load ptr, ptr %2, align 8
  %4 = getelementptr inbounds nuw %"class.grpc_core::(anonymous namespace)::AresDNSResolver::AresTXTRequest", ptr %3, i32 0, i32 1
  %5 = load ptr, ptr %4, align 8, !tbaa !904
  invoke void @gpr_free(ptr noundef %5)
          to label %6 unwind label %8

6:                                                ; preds = %1
  %7 = getelementptr inbounds nuw %"class.grpc_core::(anonymous namespace)::AresDNSResolver::AresTXTRequest", ptr %3, i32 0, i32 2
  call void @_ZNSt14_Function_baseD2Ev(ptr noundef nonnull align 8 dereferenceable(32) %7) #3
  call void @_ZN9grpc_core12_GLOBAL__N_115AresDNSResolver11AresRequestD2Ev(ptr noundef nonnull align 8 dereferenceable(168) %3) #3
  ret void

8:                                                ; preds = %1
  %9 = landingpad { ptr, i32 }
          catch ptr null
  %10 = extractvalue { ptr, i32 } %9, 0
  call void @__clang_call_terminate(ptr %10) #32
  unreachable
}